MPASM 5.87  /HOME/TALES/MPLABXPROJECTS/BLINK   8-29-2020  21:48:07         PAGE  1


LOC  OBJECT CODE     LINE SOURCE TEXT
  VALUE

                      00001 ;========================================================================================
                      00002 ;
                      00003 ; Curso de Assembly para PIC WR Kits Aula 69
                      00004 ;
                      00005 ;
                      00006 ; Conversão AD com PIC12F675
                      00007 ;
                      00008 ;
                      00009 ; Compilador: MPASM v 5.51
                      00010 ;
                      00011 ; MCU: PIC12F675
                      00012 ;
                      00013 ; Clock: 4MHz (oscilador interno)    Ciclo de máquina = 1µs
                      00014 ;
                      00015 ; Autor: Eng. Wagner Rambo   Data: Março de 2017
                      00016 ;
                      00017 ;
                      00018 ;========================================================================================
                      00019 
                      00020 
                      00021 ;========================================================================================
                      00022 ; --- Listagem do Processador Utilizado ---
                      00023 ;       list    p=12F675                                                ;Utilizado PIC16F675
                      00024                 
                      00025 
                      00026 ;========================================================================================       
                      00027 ; --- Arquivos Inclusos no Projeto ---
                      00028         #include "p12f675.inc"                                  ;inclui o arquivo do PIC 16F675
                      00001         LIST
                      00002 
                      00003 ;==========================================================================
                      00004 ; Build date : Jan 06 2020
                      00005 ;  MPASM PIC12F675 processor include
                      00006 ; 
                      00007 ;  (c) Copyright 1999-2020 Microchip Technology, All rights reserved
                      00008 ;==========================================================================
                      00009 
                      00367         LIST
                      00029         
                      00030 
                      00031 ;========================================================================================
                      00032 ; --- FUSE Bits ---
                      00033 ; - Clock de 4MHz (oscilador interno sem habilitar saídas)
                      00034 ; - Watch Dog Timer desabilitado
                      00035 ; - Power Up Timer habilitado
                      00036 ; - Brown Out desabilitado
                      00037 ; - Sem proteção de código, sem proteção da memória EEPROM
                      00038 ; - Master Clear desabilitado
2007   3F84           00039         __config _INTRC_OSC_NOCLKOUT & _WDT_OFF & _PWRTE_ON & _BOREN_OFF & _CP_OFF & _CPD_OFF & _MCLRE_O
                            FF
                      00040         
                      00041 
                      00042 ;========================================================================================
MPASM 5.87  /HOME/TALES/MPLABXPROJECTS/BLINK   8-29-2020  21:48:07         PAGE  2


LOC  OBJECT CODE     LINE SOURCE TEXT
  VALUE

                      00043 ; --- Paginação de Memória ---
                      00044         #define         bank0   bcf     STATUS,RP0              ;Cria um mnemônico para selecionar o ban
                            co 0 de memória
                      00045         #define         bank1   bsf     STATUS,RP0              ;Cria um mnemônico para selecionar o ban
                            co 1 de memória
                      00046         
                      00047         
                      00048 ;========================================================================================
                      00049 ; --- Mapeamento de Hardware ---
                      00050         #define         pot             GPIO,3                          ;Potenciômetro ligado no pino GP
                            3
                      00051         #define         out             GPIO,5                          ;Saída de teste no pino GP5
                      00052 
                      00053 
                      00054 ;========================================================================================
                      00055 ; --- Registradores de Uso Geral ---
                      00056         cblock          H'20'                                           ;Início da memória disponível pa
                            ra o usuário
                      00057         
  00000020            00058         W_TEMP                                                                  ;Registrador para armaze
                            nar o conteúdo temporário de work
  00000021            00059         STATUS_TEMP                                                             ;Registrador para armaze
                            nar o conteúdo temporário de STATUS
  00000022            00060         T0                                                                              ;contador auxili
                            ar para temporização
  00000023            00061         value_adc                                                               ;registrador para compar
                            ação
                      00062          
                      00063         endc                                                                    ;Final da memória do usu
                            ário
                      00064         
                      00065 
                      00066 ;========================================================================================
                      00067 ; --- Vetor de RESET ---
                      00068         org                     H'0000'                                         ;Origem no endereço 00h 
                            de memória
0000   2???           00069         goto            inicio                                          ;Desvia para a label início
                      00070         
                      00071 
                      00072 ;========================================================================================
                      00073 ; --- Vetor de Interrupção ---
                      00074         org                     H'0004'                                         ;As interrupções deste p
                            rocessador apontam para este endereço
                      00075         
                      00076 ; -- Salva Contexto --
0004   00A0           00077         movwf           W_TEMP                                          ;Copia o conteúdo de Work para W
                            _TEMP
0005   0E03           00078         swapf           STATUS,W                                        ;Move o conteúdo de STATUS com o
                            s nibbles invertidos para Work
0006   1283           00079         bank0                                                                   ;Seleciona o banco 0 de 
                            memória (padrão do RESET) 
0007   00A1           00080         movwf           STATUS_TEMP                                     ;Copia o conteúdo de STATUS com 
                            os nibbles invertidos para STATUS_TEMP
MPASM 5.87  /HOME/TALES/MPLABXPROJECTS/BLINK   8-29-2020  21:48:07         PAGE  3


LOC  OBJECT CODE     LINE SOURCE TEXT
  VALUE

                      00081 ; -- Final do Salvamento de Contexto --
                      00082 
                      00083 
                      00084 
                      00085 
                      00086  
                      00087 ; -- Recupera Contexto (Saída da Interrupção) --
0008                  00088 exit_ISR:
                      00089 
0008   0E21           00090         swapf           STATUS_TEMP,W                           ;Copia em Work o conteúdo de STATUS_TEMP
                             com os nibbles invertidos
0009   0083           00091         movwf           STATUS                                          ;Recupera o conteúdo de STATUS
000A   0EA0           00092         swapf           W_TEMP,F                                        ;W_TEMP = W_TEMP com os nibbles 
                            invertidos 
000B   0E20           00093         swapf           W_TEMP,W                                        ;Recupera o conteúdo de Work
                      00094         
000C   0009           00095         retfie                                                                  ;Retorna da interrupção
                      00096 
                      00097 
                      00098 ;========================================================================================       
                      00099 ; --- Principal ---     
000D                  00100 inicio:
                      00101 
000D   1683           00102         bank1                                                                   ;muda para o banco 1 de 
                            memória
Message[302]: Register in operand not in bank 0.  Ensure that bank bits are correct.
000E   1285           00103         bcf                     TRISIO,5                                        ;configura GP5 como saíd
                            a
000F   3011           00104         movlw           H'11'                                           ;move literal 11h para work
Message[302]: Register in operand not in bank 0.  Ensure that bank bits are correct.
0010   009F           00105         movwf           ANSEL                                           ;Fosc/8, configura AN0 para util
                            ização
                      00106          
                      00107 
0011   1283           00108         bank0                                                                   ;muda para o banco 0 de 
                            memória
0012   1285           00109         bcf                     out                                                     ;saída inicia em
                             LOW
0013   3007           00110         movlw           H'07'                                           ;move literal 07h para work
0014   0099           00111         movwf           CMCON                                           ;habilita comparadores com tensã
                            o de referência interna
0015   141F           00112         bsf                     ADCON0,ADON                                     ;habilita conversor AD
0016   3064           00113         movlw           H'64'                                           ;move 64h para work
0017   00A2           00114         movwf           T0                                                      ;inicializa contador aux
                            iliar
0018   3080           00115         movlw           H'80'                                           ;move 80h para work
0019   00A3           00116         movwf           value_adc                                       ;inicializa value_adc
                      00117  
                      00118  ; 1000 0000b  / 0111 1111b
                      00119         
                      00120 
                      00121 
001A                  00122 loop:                                                                           ;Loop infinito
MPASM 5.87  /HOME/TALES/MPLABXPROJECTS/BLINK   8-29-2020  21:48:07         PAGE  4


LOC  OBJECT CODE     LINE SOURCE TEXT
  VALUE

                      00123 
001A   149F           00124         bsf                     ADCON0,GO_DONE                          ;recebe dado do canal analógico
                      00125         
001B                  00126 wait_adc:
                      00127 
001B   189F           00128         btfsc           ADCON0,GO_DONE                                  ;dado está pronto?
001C   2???           00129         goto            wait_adc                                        ;Não, aguarda
                      00130                                                                                         ;Sim
001D   081E           00131         movf            ADRESH,W                                        ;carrega valor de conversão em w
                            ork
                      00132         
001E   0523           00133         andwf           value_adc,W                                     ;W = W and value_adc
001F   1D03           00134         btfss           STATUS,Z                                        ;adc menor que 128?
0020   2???           00135         goto            out_high                                        ;sim, desvia para setar saída
0021   1285           00136         bcf             out                                                     ;não, limpa saída
0022   2???           00137         goto            continua                                        ;desvia para label continua
                      00138                                                                                         
                      00139                                                                                         
0023                  00140 out_high:
                      00141 
0023   1685           00142         bsf                     out                                                     ;saida em HIGH
                      00143         
0024                  00144 continua:
                      00145 
0024   2???           00146         call            _100us                                          ;aguarda 100us
0025   2???           00147         call            _100us                                          ;aguarda 100us
0026   2???           00148         call            _100us                                          ;aguarda 100us
0027   2???           00149         call            _100us                                          ;aguarda 100us
0028   2???           00150         call            _100us                                          ;aguarda 100us
                      00151  
                      00152         
                      00153         
                      00154    
                      00155  
0029   2???           00156         goto            loop                             
                      00157  
                      00158  
                      00159         
                      00160         
                      00161 ;========================================================================================
                      00162 ; --- Desenvolvimento das Sub-Rotinas ---
002A                  00163 _100us:
                      00164 
002A   0BA2           00165         decfsz          T0,F                                            ;decrementa T0. Chegou em zero?
002B   2???           00166         goto            _100us                                          ;Não, desvia
002C   0008           00167         return                                                                  ;Sim, retorna           
                                                                    
                      00168  
                      00169      
                      00170  
                      00171 
                      00172 
                      00173 ;========================================================================================
MPASM 5.87  /HOME/TALES/MPLABXPROJECTS/BLINK   8-29-2020  21:48:07         PAGE  5


LOC  OBJECT CODE     LINE SOURCE TEXT
  VALUE

                      00174 ; --- Final do Programa ---     
3F84                  00175         end                                                                             ;Final do Progra
                            ma
MPASM 5.87  /HOME/TALES/MPLABXPROJECTS/BLINK   8-29-2020  21:48:07         PAGE  6


SYMBOL TABLE
  LABEL                             VALUE 

ADCON0                            0000001F
ADCS0                             00000004
ADCS1                             00000005
ADCS2                             00000006
ADFM                              00000007
ADIE                              00000006
ADIF                              00000006
ADON                              00000000
ADRESH                            0000001E
ADRESL                            0000009E
ANS0                              00000000
ANS1                              00000001
ANS2                              00000002
ANS3                              00000003
ANSEL                             0000009F
C                                 00000000
CAL0                              00000002
CAL1                              00000003
CAL2                              00000004
CAL3                              00000005
CAL4                              00000006
CAL5                              00000007
CHS0                              00000002
CHS1                              00000003
CINV                              00000004
CIS                               00000003
CM0                               00000000
CM1                               00000001
CM2                               00000002
CMCON                             00000019
CMIE                              00000003
CMIF                              00000003
COUT                              00000006
DC                                00000001
EEADR                             0000009B
EECON1                            0000009C
EECON2                            0000009D
EEDAT                             0000009A
EEDATA                            0000009A
EEIE                              00000007
EEIF                              00000007
F                                 00000001
FSR                               00000004
GIE                               00000007
GO                                00000001
GO_DONE                           00000001
GO_NOT_DONE                       00000001
GP0                               00000000
GP1                               00000001
GP2                               00000002
GP3                               00000003
GP4                               00000004
GP5                               00000005
MPASM 5.87  /HOME/TALES/MPLABXPROJECTS/BLINK   8-29-2020  21:48:07         PAGE  7


SYMBOL TABLE
  LABEL                             VALUE 

GPIE                              00000003
GPIF                              00000000
GPIO                              00000005
GPIO0                             00000000
GPIO1                             00000001
GPIO2                             00000002
GPIO3                             00000003
GPIO4                             00000004
GPIO5                             00000005
INDF                              00000000
INTCON                            0000000B
INTE                              00000004
INTEDG                            00000006
INTF                              00000001
IOC                               00000096
IOC0                              00000000
IOC1                              00000001
IOC2                              00000002
IOC3                              00000003
IOC4                              00000004
IOC5                              00000005
IOCB                              00000096
IOCB0                             00000000
IOCB1                             00000001
IOCB2                             00000002
IOCB3                             00000003
IOCB4                             00000004
IOCB5                             00000005
IRP                               00000007
NOT_BOD                           00000000
NOT_BOR                           00000000
NOT_DONE                          00000001
NOT_GPPU                          00000007
NOT_PD                            00000003
NOT_POR                           00000001
NOT_T1SYNC                        00000002
NOT_TO                            00000004
OPTION_REG                        00000081
OSCCAL                            00000090
PCL                               00000002
PCLATH                            0000000A
PCON                              0000008E
PEIE                              00000006
PIE1                              0000008C
PIR1                              0000000C
PS0                               00000000
PS1                               00000001
PS2                               00000002
PSA                               00000003
RD                                00000000
RP0                               00000005
RP1                               00000006
STATUS                            00000003
MPASM 5.87  /HOME/TALES/MPLABXPROJECTS/BLINK   8-29-2020  21:48:07         PAGE  8


SYMBOL TABLE
  LABEL                             VALUE 

STATUS_TEMP                       00000021
T0                                00000022
T0CS                              00000005
T0IE                              00000005
T0IF                              00000002
T0SE                              00000004
T1CKPS0                           00000004
T1CKPS1                           00000005
T1CON                             00000010
T1IE                              00000000
T1IF                              00000000
T1OSCEN                           00000003
TMR0                              00000001
TMR0IE                            00000005
TMR0IF                            00000002
TMR1                              0000000E
TMR1CS                            00000001
TMR1GE                            00000006
TMR1H                             0000000F
TMR1IE                            00000000
TMR1IF                            00000000
TMR1L                             0000000E
TMR1ON                            00000000
TRISIO                            00000085
TRISIO0                           00000000
TRISIO1                           00000001
TRISIO2                           00000002
TRISIO3                           00000003
TRISIO4                           00000004
TRISIO5                           00000005
VCFG                              00000006
VR0                               00000000
VR1                               00000001
VR2                               00000002
VR3                               00000003
VRCON                             00000099
VREN                              00000007
VRR                               00000005
W                                 00000000
WPU                               00000095
WPU0                              00000000
WPU1                              00000001
WPU2                              00000002
WPU4                              00000004
WPU5                              00000005
WR                                00000001
WREN                              00000002
WRERR                             00000003
W_TEMP                            00000020
Z                                 00000002
_100us                            0000002A
_BODEN_OFF                        00003FBF
_BODEN_ON                         00003FFF
MPASM 5.87  /HOME/TALES/MPLABXPROJECTS/BLINK   8-29-2020  21:48:07         PAGE  9


SYMBOL TABLE
  LABEL                             VALUE 

_BOREN_OFF                        00003FBF
_BOREN_ON                         00003FFF
_CONFIG                           00002007
_CPD_OFF                          00003FFF
_CPD_ON                           00003EFF
_CP_OFF                           00003FFF
_CP_ON                            00003F7F
_DEVID1                           00002006
_EC_OSC                           00003FFB
_EXTRC_OSC_CLKOUT                 00003FFF
_EXTRC_OSC_NOCLKOUT               00003FFE
_FOSC_EC                          00003FFB
_FOSC_EXTRCCLK                    00003FFF
_FOSC_EXTRCIO                     00003FFE
_FOSC_HS                          00003FFA
_FOSC_INTRCCLK                    00003FFD
_FOSC_INTRCIO                     00003FFC
_FOSC_LP                          00003FF8
_FOSC_XT                          00003FF9
_HS_OSC                           00003FFA
_IDLOC0                           00002000
_IDLOC1                           00002001
_IDLOC2                           00002002
_IDLOC3                           00002003
_INTRC_OSC_CLKOUT                 00003FFD
_INTRC_OSC_NOCLKOUT               00003FFC
_LP_OSC                           00003FF8
_MCLRE_OFF                        00003FDF
_MCLRE_ON                         00003FFF
_PWRTE_OFF                        00003FFF
_PWRTE_ON                         00003FEF
_WDTE_OFF                         00003FF7
_WDTE_ON                          00003FFF
_WDT_OFF                          00003FF7
_WDT_ON                           00003FFF
_XT_OSC                           00003FF9
__12F675                          00000001
bank0                             bcf     STATUS,RP0
bank1                             bsf     STATUS,RP0
continua                          00000024
exit_ISR                          00000008
inicio                            0000000D
loop                              0000001A
out                               GPIO,5
out_high                          00000023
pot                               GPIO,3
value_adc                         00000023
wait_adc                          0000001B

Errors   :     0
Warnings :     0 reported,     0 suppressed
Messages :     2 reported,     0 suppressed

